target datalayout = "e-m:e-p270:32:32-p271:32:32-p272:64:64-i64:64-i128:128-f80:128-n8:16:32:64-S128"
target triple = "x86_64-unknown-linux-gnu"

%class.func_decl_dependencies = type { ptr, %class.obj_map.62 }
%class.obj_map.62 = type { %class.core_hashtable.63 }
%class.core_hashtable.63 = type <{ ptr, i32, i32, i32, [4 x i8] }>
%class.ptr_vector.46 = type { %class.vector.47 }
%class.vector.47 = type { ptr }
%class.ptr_vector = type { %class.vector.3 }
%class.vector.3 = type { ptr }
%class.ref_vector = type { %class.ref_vector_core }
%class.ref_vector_core = type { %class.ref_manager_wrapper, %class.ptr_vector }
%class.ref_manager_wrapper = type { ptr }
%"class.smt::model_finder" = type { %class.quantifier2macro_infos, ptr, ptr, %class.scoped_ptr.296, %class.scoped_ptr.297, %class.obj_map.298, %class.ptr_vector.46, %class.func_decl_dependencies, %class.svector.303, %class.ref_vector }
%class.quantifier2macro_infos = type { ptr }
%class.scoped_ptr.296 = type { ptr }
%class.scoped_ptr.297 = type { ptr }
%class.obj_map.298 = type { %class.core_hashtable.299 }
%class.core_hashtable.299 = type <{ ptr, i32, i32, i32, [4 x i8] }>
%class.svector.303 = type { %class.vector.304 }
%class.vector.304 = type { ptr }
%"struct.obj_map<quantifier, smt::mf::quantifier_info *>::key_data" = type { ptr, ptr }

; Function Attrs: mustprogress nounwind uwtable
define linkonce_odr hidden void @_ZN7obj_mapI10quantifierPN3smt2mf15quantifier_infoEE8key_dataC2EPS0_(ptr noundef nonnull align 8 dereferenceable(16) %this, ptr noundef %k) unnamed_addr #4 comdat align 2 {
entry:
  %this.addr = alloca ptr, align 8
  %k.addr = alloca ptr, align 8
  store ptr %this, ptr %this.addr, align 8
  store ptr %k, ptr %k.addr, align 8
  %this1 = load ptr, ptr %this.addr, align 8
  %m_key = getelementptr inbounds %"struct.obj_map<quantifier, smt::mf::quantifier_info *>::key_data", ptr %this1, i32 0, i32 0
  %0 = load ptr, ptr %k.addr, align 8
  store ptr %0, ptr %m_key, align 8
  %m_value = getelementptr inbounds %"struct.obj_map<quantifier, smt::mf::quantifier_info *>::key_data", ptr %this1, i32 0, i32 1
  store ptr null, ptr %m_value, align 8
  ret void
}

; Function Attrs: mustprogress uwtable
define linkonce_odr hidden void @_ZN7obj_mapI10quantifierPN3smt2mf15quantifier_infoEE6removeEPS0_(ptr noundef nonnull align 8 dereferenceable(24) %this, ptr noundef %k) #5 comdat align 2 {
entry:
  %this.addr = alloca ptr, align 8
  %k.addr = alloca ptr, align 8
  %ref.tmp = alloca %"struct.obj_map<quantifier, smt::mf::quantifier_info *>::key_data", align 8
  store ptr %this, ptr %this.addr, align 8
  store ptr %k, ptr %k.addr, align 8
  %this1 = load ptr, ptr %this.addr, align 8
  %m_table = getelementptr inbounds %class.obj_map.298, ptr %this1, i32 0, i32 0
  %0 = load ptr, ptr %k.addr, align 8
  call void @_ZN7obj_mapI10quantifierPN3smt2mf15quantifier_infoEE8key_dataC2EPS0_(ptr noundef nonnull align 8 dereferenceable(16) %ref.tmp, ptr noundef %0)
  call void @_ZN14core_hashtableIN7obj_mapI10quantifierPN3smt2mf15quantifier_infoEE13obj_map_entryE8obj_hashINS6_8key_dataEE10default_eqIS9_EE6removeERKS9_(ptr noundef nonnull align 8 dereferenceable(20) %m_table, ptr noundef nonnull align 8 dereferenceable(16) %ref.tmp)
  ret void
}

; Function Attrs: mustprogress nounwind uwtable
define linkonce_odr hidden void @_ZN6vectorIP10quantifierLb0EjE6shrinkEj(ptr noundef nonnull align 8 dereferenceable(8) %this, i32 noundef %s) #4 comdat align 2 {
entry:
  %this.addr = alloca ptr, align 8
  %s.addr = alloca i32, align 4
  store ptr %this, ptr %this.addr, align 8
  store i32 %s, ptr %s.addr, align 4
  %this1 = load ptr, ptr %this.addr, align 8
  %m_data = getelementptr inbounds %class.vector.47, ptr %this1, i32 0, i32 0
  %0 = load ptr, ptr %m_data, align 8
  %tobool = icmp ne ptr %0, null
  br i1 %tobool, label %if.then, label %if.else

if.then:                                          ; preds = %entry
  %1 = load i32, ptr %s.addr, align 4
  %m_data2 = getelementptr inbounds %class.vector.47, ptr %this1, i32 0, i32 0
  %2 = load ptr, ptr %m_data2, align 8
  %arrayidx = getelementptr inbounds i32, ptr %2, i64 -1
  store i32 %1, ptr %arrayidx, align 4
  br label %if.end

if.else:                                          ; preds = %entry
  br label %if.end

if.end:                                           ; preds = %if.else, %if.then
  ret void
}

; Function Attrs: mustprogress uwtable
define linkonce_odr hidden void @_Z7deallocIN3smt2mf15quantifier_infoEEvPT_(ptr noundef %ptr) #5 comdat {
entry:
  %ptr.addr = alloca ptr, align 8
  store ptr %ptr, ptr %ptr.addr, align 8
  %0 = load ptr, ptr %ptr.addr, align 8
  %cmp = icmp eq ptr %0, null
  br i1 %cmp, label %if.then, label %if.end

if.then:                                          ; preds = %entry
  br label %return

if.end:                                           ; preds = %entry
  %1 = load ptr, ptr %ptr.addr, align 8
  %vtable = load ptr, ptr %1, align 8
  %vfn = getelementptr inbounds ptr, ptr %vtable, i64 0
  %2 = load ptr, ptr %vfn, align 8
  call void %2(ptr noundef nonnull align 8 dereferenceable(128) %1) #3
  %3 = load ptr, ptr %ptr.addr, align 8
  call void @_ZN6memory10deallocateEPv(ptr noundef %3)
  br label %return

return:                                           ; preds = %if.end, %if.then
  ret void
}

; Function Attrs: mustprogress uwtable
define linkonce_odr hidden void @_ZN7obj_mapI10quantifierPN3smt2mf15quantifier_infoEE5eraseEPS0_(ptr noundef nonnull align 8 dereferenceable(24) %this, ptr noundef %k) #5 comdat align 2 {
entry:
  %this.addr = alloca ptr, align 8
  %k.addr = alloca ptr, align 8
  store ptr %this, ptr %this.addr, align 8
  store ptr %k, ptr %k.addr, align 8
  %this1 = load ptr, ptr %this.addr, align 8
  %0 = load ptr, ptr %k.addr, align 8
  call void @_ZN7obj_mapI10quantifierPN3smt2mf15quantifier_infoEE6removeEPS0_(ptr noundef nonnull align 8 dereferenceable(24) %this1, ptr noundef %0)
  ret void
}

; Function Attrs: mustprogress nounwind uwtable
define linkonce_odr hidden noundef nonnull align 8 dereferenceable(8) ptr @_ZN6vectorIP10quantifierLb0EjEixEj(ptr noundef nonnull align 8 dereferenceable(8) %this, i32 noundef %idx) #4 comdat align 2 {
entry:
  %this.addr = alloca ptr, align 8
  %idx.addr = alloca i32, align 4
  store ptr %this, ptr %this.addr, align 8
  store i32 %idx, ptr %idx.addr, align 4
  %this1 = load ptr, ptr %this.addr, align 8
  %m_data = getelementptr inbounds %class.vector.47, ptr %this1, i32 0, i32 0
  %0 = load ptr, ptr %m_data, align 8
  %1 = load i32, ptr %idx.addr, align 4
  %idxprom = zext i32 %1 to i64
  %arrayidx = getelementptr inbounds ptr, ptr %0, i64 %idxprom
  ret ptr %arrayidx
}

; Function Attrs: mustprogress nounwind uwtable
define linkonce_odr hidden noundef i32 @_ZNK6vectorIP10quantifierLb0EjE4sizeEv(ptr noundef nonnull align 8 dereferenceable(8) %this) #4 comdat align 2 {
entry:
  %retval = alloca i32, align 4
  %this.addr = alloca ptr, align 8
  store ptr %this, ptr %this.addr, align 8
  %this1 = load ptr, ptr %this.addr, align 8
  %m_data = getelementptr inbounds %class.vector.47, ptr %this1, i32 0, i32 0
  %0 = load ptr, ptr %m_data, align 8
  %cmp = icmp eq ptr %0, null
  br i1 %cmp, label %if.then, label %if.end

if.then:                                          ; preds = %entry
  store i32 0, ptr %retval, align 4
  br label %return

if.end:                                           ; preds = %entry
  %m_data2 = getelementptr inbounds %class.vector.47, ptr %this1, i32 0, i32 0
  %1 = load ptr, ptr %m_data2, align 8
  %arrayidx = getelementptr inbounds i32, ptr %1, i64 -1
  %2 = load i32, ptr %arrayidx, align 4
  store i32 %2, ptr %retval, align 4
  br label %return

return:                                           ; preds = %if.end, %if.then
  %3 = load i32, ptr %retval, align 4
  ret i32 %3
}

; Function Attrs: mustprogress uwtable
define hidden void @_ZN3smt12model_finder19restore_quantifiersEj(ptr noundef nonnull align 8 dereferenceable(128) %this, i32 noundef %old_size) #5 align 2 {
entry:
  %this.addr = alloca ptr, align 8
  %old_size.addr = alloca i32, align 4
  %curr_size = alloca i32, align 4
  %i = alloca i32, align 4
  %q = alloca ptr, align 8
  %info = alloca ptr, align 8
  store ptr %this, ptr %this.addr, align 8
  store i32 %old_size, ptr %old_size.addr, align 4
  %this1 = load ptr, ptr %this.addr, align 8
  %m_quantifiers = getelementptr inbounds %"class.smt::model_finder", ptr %this1, i32 0, i32 6
  %call = call noundef i32 @_ZNK6vectorIP10quantifierLb0EjE4sizeEv(ptr noundef nonnull align 8 dereferenceable(8) %m_quantifiers)
  store i32 %call, ptr %curr_size, align 4
  %0 = load i32, ptr %old_size.addr, align 4
  store i32 %0, ptr %i, align 4
  br label %for.cond

for.cond:                                         ; preds = %for.inc, %entry
  %1 = load i32, ptr %i, align 4
  %2 = load i32, ptr %curr_size, align 4
  %cmp = icmp ult i32 %1, %2
  br i1 %cmp, label %for.body, label %for.end

for.body:                                         ; preds = %for.cond
  %m_quantifiers2 = getelementptr inbounds %"class.smt::model_finder", ptr %this1, i32 0, i32 6
  %3 = load i32, ptr %i, align 4
  %call3 = call noundef nonnull align 8 dereferenceable(8) ptr @_ZN6vectorIP10quantifierLb0EjEixEj(ptr noundef nonnull align 8 dereferenceable(8) %m_quantifiers2, i32 noundef %3)
  %4 = load ptr, ptr %call3, align 8
  store ptr %4, ptr %q, align 8
  %5 = load ptr, ptr %q, align 8
  %call4 = call noundef ptr @_ZN3smt12model_finder19get_quantifier_infoEP10quantifier(ptr noundef nonnull align 8 dereferenceable(128) %this1, ptr noundef %5)
  store ptr %call4, ptr %info, align 8
  %m_q2info = getelementptr inbounds %"class.smt::model_finder", ptr %this1, i32 0, i32 5
  %6 = load ptr, ptr %q, align 8
  call void @_ZN7obj_mapI10quantifierPN3smt2mf15quantifier_infoEE5eraseEPS0_(ptr noundef nonnull align 8 dereferenceable(24) %m_q2info, ptr noundef %6)
  %7 = load ptr, ptr %info, align 8
  call void @_Z7deallocIN3smt2mf15quantifier_infoEEvPT_(ptr noundef %7)
  br label %for.inc

for.inc:                                          ; preds = %for.body
  %8 = load i32, ptr %i, align 4
  %inc = add i32 %8, 1
  store i32 %inc, ptr %i, align 4
  br label %for.cond, !llvm.loop !7

for.end:                                          ; preds = %for.cond
  %m_quantifiers5 = getelementptr inbounds %"class.smt::model_finder", ptr %this1, i32 0, i32 6
  %9 = load i32, ptr %old_size.addr, align 4
  call void @_ZN6vectorIP10quantifierLb0EjE6shrinkEj(ptr noundef nonnull align 8 dereferenceable(8) %m_quantifiers5, i32 noundef %9)
  ret void
}