; Function Attrs: mustprogress uwtable
define hidden void @_ZN3smt12model_finder19restore_quantifiersEj(ptr noundef nonnull align 8 dereferenceable(128) %this, i32 noundef %old_size) local_unnamed_addr #3 align 2 {
entry:
  %ref.tmp.i.i = alloca %"struct.obj_map<quantifier, smt::mf::quantifier_info *>::key_data", align 8
  %m_quantifiers = getelementptr inbounds i8, ptr %this, i64 64
  %0 = load ptr, ptr %m_quantifiers, align 8
  %cmp.i = icmp eq ptr %0, null
  br i1 %cmp.i, label %_ZN6vectorIP10quantifierLb0EjE6shrinkEj.exit, label %_ZNK6vectorIP10quantifierLb0EjE4sizeEv.exit

_ZNK6vectorIP10quantifierLb0EjE4sizeEv.exit:      ; preds = %entry
  %arrayidx.i = getelementptr inbounds i8, ptr %0, i64 -4
  %1 = load i32, ptr %arrayidx.i, align 4
  %cmp10 = icmp ugt i32 %1, %old_size
  br i1 %cmp10, label %for.body.lr.ph, label %if.then.i

for.body.lr.ph:                                   ; preds = %_ZNK6vectorIP10quantifierLb0EjE4sizeEv.exit
  %m_q2info = getelementptr inbounds i8, ptr %this, i64 40
  %m_value.i.i.i = getelementptr inbounds i8, ptr %ref.tmp.i.i, i64 8
  %2 = zext i32 %old_size to i64
  br label %for.body

for.body:                                         ; preds = %for.body.lr.ph, %_Z7deallocIN3smt2mf15quantifier_infoEEvPT_.exit
  %indvars.iv = phi i64 [ %2, %for.body.lr.ph ], [ %indvars.iv.next, %_Z7deallocIN3smt2mf15quantifier_infoEEvPT_.exit ]
  %3 = load ptr, ptr %m_quantifiers, align 8
  %arrayidx.i5 = getelementptr inbounds ptr, ptr %3, i64 %indvars.iv
  %4 = load ptr, ptr %arrayidx.i5, align 8
  %call4 = call noundef ptr @_ZN3smt12model_finder19get_quantifier_infoEP10quantifier(ptr noundef nonnull align 8 dereferenceable(128) %this, ptr noundef %4)
  call void @llvm.lifetime.start.p0(i64 16, ptr nonnull %ref.tmp.i.i)
  store ptr %4, ptr %ref.tmp.i.i, align 8
  store ptr null, ptr %m_value.i.i.i, align 8
  call void @_ZN14core_hashtableIN7obj_mapI10quantifierPN3smt2mf15quantifier_infoEE13obj_map_entryE8obj_hashINS6_8key_dataEE10default_eqIS9_EE6removeERKS9_(ptr noundef nonnull align 8 dereferenceable(20) %m_q2info, ptr noundef nonnull align 8 dereferenceable(16) %ref.tmp.i.i)
  call void @llvm.lifetime.end.p0(i64 16, ptr nonnull %ref.tmp.i.i)
  %cmp.i6 = icmp eq ptr %call4, null
  br i1 %cmp.i6, label %_Z7deallocIN3smt2mf15quantifier_infoEEvPT_.exit, label %if.end.i7

if.end.i7:                                        ; preds = %for.body
  %vtable.i = load ptr, ptr %call4, align 8
  %5 = load ptr, ptr %vtable.i, align 8
  call void %5(ptr noundef nonnull align 8 dereferenceable(128) %call4) #21
  call void @_ZN6memory10deallocateEPv(ptr noundef nonnull %call4)
  br label %_Z7deallocIN3smt2mf15quantifier_infoEEvPT_.exit

_Z7deallocIN3smt2mf15quantifier_infoEEvPT_.exit:  ; preds = %for.body, %if.end.i7
  %indvars.iv.next = add nuw nsw i64 %indvars.iv, 1
  %lftr.wideiv = trunc i64 %indvars.iv.next to i32
  %exitcond.not = icmp eq i32 %1, %lftr.wideiv
  br i1 %exitcond.not, label %for.end, label %for.body, !llvm.loop !8

for.end:                                          ; preds = %_Z7deallocIN3smt2mf15quantifier_infoEEvPT_.exit
  %.pre = load ptr, ptr %m_quantifiers, align 8
  %tobool.not.i = icmp eq ptr %.pre, null
  br i1 %tobool.not.i, label %_ZN6vectorIP10quantifierLb0EjE6shrinkEj.exit, label %if.then.i

if.then.i:                                        ; preds = %_ZNK6vectorIP10quantifierLb0EjE4sizeEv.exit, %for.end
  %6 = phi ptr [ %.pre, %for.end ], [ %0, %_ZNK6vectorIP10quantifierLb0EjE4sizeEv.exit ]
  %arrayidx.i8 = getelementptr inbounds i8, ptr %6, i64 -4
  store i32 %old_size, ptr %arrayidx.i8, align 4
  br label %_ZN6vectorIP10quantifierLb0EjE6shrinkEj.exit

_ZN6vectorIP10quantifierLb0EjE6shrinkEj.exit:     ; preds = %entry, %for.end, %if.then.i
  ret void
}